; Function Attrs: null_pointer_is_valid sspstrong uwtable
define internal i32 @dissect_e1ap_tcp_pdu(ptr noundef %0, ptr noundef %1, ptr noundef %2, ptr readnone captures(none) %3) #0 {
  %5 = alloca %struct._asn1_ctx_t, align 8
  %6 = load i32, ptr @hf_e1ap_tcp_pdu_len, align 4
  %7 = tail call ptr @proto_tree_add_item(ptr noundef %2, i32 noundef %6, ptr noundef %0, i32 noundef 0, i32 noundef 4, i32 noundef 0)
  %8 = tail call ptr @tvb_new_subset_remaining(ptr noundef %0, i32 noundef 4)
  %9 = getelementptr inbounds nuw i8, ptr %1, i64 8
  %10 = load ptr, ptr %9, align 8
  tail call void @col_set_str(ptr noundef %10, i32 noundef 35, ptr noundef nonnull @.str.1772)
  %11 = load ptr, ptr %9, align 8
  tail call void @col_clear(ptr noundef %11, i32 noundef 25)
  %12 = load i32, ptr @proto_e1ap, align 4
  %13 = tail call ptr @proto_tree_add_item(ptr noundef %2, i32 noundef %12, ptr noundef %8, i32 noundef 0, i32 noundef -1, i32 noundef 0)
  %14 = load i32, ptr @ett_e1ap, align 4
  %15 = tail call ptr @proto_item_add_subtree(ptr noundef %13, i32 noundef %14)
  call void @llvm.lifetime.start.p0(i64 208, ptr nonnull %5) #6
  call void @asn1_ctx_init(ptr noundef nonnull %5, i32 noundef 1, i1 noundef zeroext true, ptr noundef %1)
  %16 = load i32, ptr @hf_e1ap_E1AP_PDU_PDU, align 4
  %17 = load i32, ptr @ett_e1ap_E1AP_PDU, align 4
  %18 = call i32 @dissect_per_choice(ptr noundef %8, i32 noundef 0, ptr noundef nonnull %5, ptr noundef %15, i32 noundef %16, i32 noundef %17, ptr noundef nonnull @E1AP_PDU_choice, ptr noundef null)
  call void @llvm.lifetime.end.p0(i64 208, ptr nonnull %5) #6
  %19 = call i32 @tvb_captured_length(ptr noundef %8)
  ret i32 %19
}